target datalayout = "e-m:e-p270:32:32-p271:32:32-p272:64:64-i64:64-i128:128-f80:128-n8:16:32:64-S128"
target triple = "x86_64-pc-linux-gnu"

%struct._object = type { %union.anon, ptr }
%union.anon = type { i64 }

@.str.65 = private unnamed_addr constant [40 x i8] c"../cpython/Modules/_testcapi/pyatomic.c\00", align 1
@.str.71 = private unnamed_addr constant [7 x i8] c"x == 0\00", align 1
@_Py_NoneStruct = external global %struct._object, align 8
@.str.186 = private unnamed_addr constant [7 x i8] c"y == 0\00", align 1
@.str.188 = private unnamed_addr constant [7 x i8] c"x == z\00", align 1
@.str.189 = private unnamed_addr constant [7 x i8] c"y == z\00", align 1
@.str.214 = private unnamed_addr constant [48 x i8] c"_Py_atomic_compare_exchange_ptr(&x, &y, z) == 0\00", align 1
@__PRETTY_FUNCTION__.test_atomic_compare_exchange_ptr = private unnamed_addr constant [67 x i8] c"PyObject *test_atomic_compare_exchange_ptr(PyObject *, PyObject *)\00", align 1
@.str.215 = private unnamed_addr constant [48 x i8] c"_Py_atomic_compare_exchange_ptr(&x, &y, z) == 1\00", align 1

; Function Attrs: inlinehint nounwind uwtable
define internal i32 @_Py_atomic_compare_exchange_ptr(ptr noundef %0, ptr noundef %1, ptr noundef %2) #3 {
  %4 = alloca ptr, align 8
  %5 = alloca ptr, align 8
  %6 = alloca ptr, align 8
  %7 = alloca ptr, align 8
  %8 = alloca i8, align 1
  store ptr %0, ptr %4, align 8, !tbaa !15
  store ptr %1, ptr %5, align 8, !tbaa !15
  store ptr %2, ptr %6, align 8, !tbaa !15
  %9 = load ptr, ptr %4, align 8, !tbaa !15
  %10 = load ptr, ptr %5, align 8, !tbaa !15
  %11 = load ptr, ptr %6, align 8, !tbaa !15
  store ptr %11, ptr %7, align 8, !tbaa !15
  %12 = load i64, ptr %10, align 8
  %13 = load i64, ptr %7, align 8
  %14 = cmpxchg ptr %9, i64 %12, i64 %13 seq_cst seq_cst, align 8
  %15 = extractvalue { i64, i1 } %14, 0
  %16 = extractvalue { i64, i1 } %14, 1
  br i1 %16, label %18, label %17

17:                                               ; preds = %3
  store i64 %15, ptr %10, align 8
  br label %18

18:                                               ; preds = %17, %3
  %19 = zext i1 %16 to i8
  store i8 %19, ptr %8, align 1, !tbaa !24
  %20 = load i8, ptr %8, align 1, !tbaa !24, !range !26, !noundef !27
  %21 = trunc i8 %20 to i1
  %22 = zext i1 %21 to i32
  ret i32 %22
}

; Function Attrs: nounwind uwtable
define internal ptr @test_atomic_compare_exchange_ptr(ptr noundef %0, ptr noundef %1) #0 {
  %3 = alloca ptr, align 8
  %4 = alloca ptr, align 8
  %5 = alloca ptr, align 8
  %6 = alloca ptr, align 8
  %7 = alloca ptr, align 8
  store ptr %0, ptr %3, align 8, !tbaa !3
  store ptr %1, ptr %4, align 8, !tbaa !3
  call void @llvm.lifetime.start.p0(i64 8, ptr %5) #5
  store ptr null, ptr %5, align 8, !tbaa !15
  call void @llvm.lifetime.start.p0(i64 8, ptr %6) #5
  store ptr inttoptr (i64 1 to ptr), ptr %6, align 8, !tbaa !15
  call void @llvm.lifetime.start.p0(i64 8, ptr %7) #5
  store ptr inttoptr (i64 2 to ptr), ptr %7, align 8, !tbaa !15
  %8 = load ptr, ptr %7, align 8, !tbaa !15
  %9 = call i32 @_Py_atomic_compare_exchange_ptr(ptr noundef %5, ptr noundef %6, ptr noundef %8)
  %10 = icmp eq i32 %9, 0
  br i1 %10, label %11, label %12

11:                                               ; preds = %2
  br label %14

12:                                               ; preds = %2
  call void @__assert_fail(ptr noundef @.str.214, ptr noundef @.str.65, i32 noundef 73, ptr noundef @__PRETTY_FUNCTION__.test_atomic_compare_exchange_ptr) #6
  unreachable

13:                                               ; No predecessors!
  br label %14

14:                                               ; preds = %13, %11
  %15 = load ptr, ptr %5, align 8, !tbaa !15
  %16 = icmp eq ptr %15, null
  br i1 %16, label %17, label %18

17:                                               ; preds = %14
  br label %20

18:                                               ; preds = %14
  call void @__assert_fail(ptr noundef @.str.71, ptr noundef @.str.65, i32 noundef 73, ptr noundef @__PRETTY_FUNCTION__.test_atomic_compare_exchange_ptr) #6
  unreachable

19:                                               ; No predecessors!
  br label %20

20:                                               ; preds = %19, %17
  %21 = load ptr, ptr %6, align 8, !tbaa !15
  %22 = icmp eq ptr %21, null
  br i1 %22, label %23, label %24

23:                                               ; preds = %20
  br label %26

24:                                               ; preds = %20
  call void @__assert_fail(ptr noundef @.str.186, ptr noundef @.str.65, i32 noundef 73, ptr noundef @__PRETTY_FUNCTION__.test_atomic_compare_exchange_ptr) #6
  unreachable

25:                                               ; No predecessors!
  br label %26

26:                                               ; preds = %25, %23
  %27 = load ptr, ptr %7, align 8, !tbaa !15
  %28 = call i32 @_Py_atomic_compare_exchange_ptr(ptr noundef %5, ptr noundef %6, ptr noundef %27)
  %29 = icmp eq i32 %28, 1
  br i1 %29, label %30, label %31

30:                                               ; preds = %26
  br label %33

31:                                               ; preds = %26
  call void @__assert_fail(ptr noundef @.str.215, ptr noundef @.str.65, i32 noundef 73, ptr noundef @__PRETTY_FUNCTION__.test_atomic_compare_exchange_ptr) #6
  unreachable

32:                                               ; No predecessors!
  br label %33

33:                                               ; preds = %32, %30
  %34 = load ptr, ptr %5, align 8, !tbaa !15
  %35 = load ptr, ptr %7, align 8, !tbaa !15
  %36 = icmp eq ptr %34, %35
  br i1 %36, label %37, label %38

37:                                               ; preds = %33
  br label %40

38:                                               ; preds = %33
  call void @__assert_fail(ptr noundef @.str.188, ptr noundef @.str.65, i32 noundef 73, ptr noundef @__PRETTY_FUNCTION__.test_atomic_compare_exchange_ptr) #6
  unreachable

39:                                               ; No predecessors!
  br label %40

40:                                               ; preds = %39, %37
  %41 = load ptr, ptr %6, align 8, !tbaa !15
  %42 = icmp eq ptr %41, null
  br i1 %42, label %43, label %44

43:                                               ; preds = %40
  br label %46

44:                                               ; preds = %40
  call void @__assert_fail(ptr noundef @.str.186, ptr noundef @.str.65, i32 noundef 73, ptr noundef @__PRETTY_FUNCTION__.test_atomic_compare_exchange_ptr) #6
  unreachable

45:                                               ; No predecessors!
  br label %46

46:                                               ; preds = %45, %43
  %47 = load ptr, ptr %7, align 8, !tbaa !15
  %48 = call i32 @_Py_atomic_compare_exchange_ptr(ptr noundef %5, ptr noundef %6, ptr noundef %47)
  %49 = icmp eq i32 %48, 0
  br i1 %49, label %50, label %51

50:                                               ; preds = %46
  br label %53

51:                                               ; preds = %46
  call void @__assert_fail(ptr noundef @.str.214, ptr noundef @.str.65, i32 noundef 73, ptr noundef @__PRETTY_FUNCTION__.test_atomic_compare_exchange_ptr) #6
  unreachable

52:                                               ; No predecessors!
  br label %53

53:                                               ; preds = %52, %50
  %54 = load ptr, ptr %5, align 8, !tbaa !15
  %55 = load ptr, ptr %7, align 8, !tbaa !15
  %56 = icmp eq ptr %54, %55
  br i1 %56, label %57, label %58

57:                                               ; preds = %53
  br label %60

58:                                               ; preds = %53
  call void @__assert_fail(ptr noundef @.str.188, ptr noundef @.str.65, i32 noundef 73, ptr noundef @__PRETTY_FUNCTION__.test_atomic_compare_exchange_ptr) #6
  unreachable

59:                                               ; No predecessors!
  br label %60

60:                                               ; preds = %59, %57
  %61 = load ptr, ptr %6, align 8, !tbaa !15
  %62 = load ptr, ptr %7, align 8, !tbaa !15
  %63 = icmp eq ptr %61, %62
  br i1 %63, label %64, label %65

64:                                               ; preds = %60
  br label %67

65:                                               ; preds = %60
  call void @__assert_fail(ptr noundef @.str.189, ptr noundef @.str.65, i32 noundef 73, ptr noundef @__PRETTY_FUNCTION__.test_atomic_compare_exchange_ptr) #6
  unreachable

66:                                               ; No predecessors!
  br label %67

67:                                               ; preds = %66, %64
  call void @llvm.lifetime.end.p0(i64 8, ptr %7) #5
  call void @llvm.lifetime.end.p0(i64 8, ptr %6) #5
  call void @llvm.lifetime.end.p0(i64 8, ptr %5) #5
  ret ptr @_Py_NoneStruct
}