; Function Attrs: nounwind uwtable
define internal noundef nonnull ptr @test_atomic_compare_exchange_ptr(ptr readnone captures(none) %0, ptr readnone captures(none) %1) #0 {
  %3 = alloca ptr, align 8
  call void @llvm.lifetime.start.p0(i64 8, ptr nonnull %3) #6
  store ptr null, ptr %3, align 8, !tbaa !12
  %4 = cmpxchg ptr %3, i64 1, i64 2 seq_cst seq_cst, align 8
  %5 = extractvalue { i64, i1 } %4, 1
  br i1 %5, label %6, label %7

6:                                                ; preds = %2
  call void @__assert_fail(ptr noundef nonnull @.str.214, ptr noundef nonnull @.str.65, i32 noundef 73, ptr noundef nonnull @__PRETTY_FUNCTION__.test_atomic_compare_exchange_ptr) #7
  unreachable

7:                                                ; preds = %2
  %8 = load ptr, ptr %3, align 8, !tbaa !12
  %9 = icmp eq ptr %8, null
  br i1 %9, label %11, label %10

10:                                               ; preds = %7
  call void @__assert_fail(ptr noundef nonnull @.str.71, ptr noundef nonnull @.str.65, i32 noundef 73, ptr noundef nonnull @__PRETTY_FUNCTION__.test_atomic_compare_exchange_ptr) #7
  unreachable

11:                                               ; preds = %7
  %12 = extractvalue { i64, i1 } %4, 0
  %13 = icmp eq i64 %12, 0
  br i1 %13, label %15, label %14

14:                                               ; preds = %11
  call void @__assert_fail(ptr noundef nonnull @.str.186, ptr noundef nonnull @.str.65, i32 noundef 73, ptr noundef nonnull @__PRETTY_FUNCTION__.test_atomic_compare_exchange_ptr) #7
  unreachable

15:                                               ; preds = %11
  %16 = cmpxchg ptr %3, i64 0, i64 2 seq_cst seq_cst, align 8
  %17 = extractvalue { i64, i1 } %16, 1
  br i1 %17, label %19, label %18

18:                                               ; preds = %15
  call void @__assert_fail(ptr noundef nonnull @.str.215, ptr noundef nonnull @.str.65, i32 noundef 73, ptr noundef nonnull @__PRETTY_FUNCTION__.test_atomic_compare_exchange_ptr) #7
  unreachable

19:                                               ; preds = %15
  %20 = load ptr, ptr %3, align 8, !tbaa !12
  %21 = icmp eq ptr %20, inttoptr (i64 2 to ptr)
  br i1 %21, label %23, label %22

22:                                               ; preds = %19
  call void @__assert_fail(ptr noundef nonnull @.str.188, ptr noundef nonnull @.str.65, i32 noundef 73, ptr noundef nonnull @__PRETTY_FUNCTION__.test_atomic_compare_exchange_ptr) #7
  unreachable

23:                                               ; preds = %19
  %24 = cmpxchg ptr %3, i64 0, i64 2 seq_cst seq_cst, align 8
  %25 = extractvalue { i64, i1 } %24, 1
  br i1 %25, label %26, label %27

26:                                               ; preds = %23
  call void @__assert_fail(ptr noundef nonnull @.str.214, ptr noundef nonnull @.str.65, i32 noundef 73, ptr noundef nonnull @__PRETTY_FUNCTION__.test_atomic_compare_exchange_ptr) #7
  unreachable

27:                                               ; preds = %23
  %28 = load ptr, ptr %3, align 8, !tbaa !12
  %29 = icmp eq ptr %28, inttoptr (i64 2 to ptr)
  br i1 %29, label %31, label %30

30:                                               ; preds = %27
  call void @__assert_fail(ptr noundef nonnull @.str.188, ptr noundef nonnull @.str.65, i32 noundef 73, ptr noundef nonnull @__PRETTY_FUNCTION__.test_atomic_compare_exchange_ptr) #7
  unreachable

31:                                               ; preds = %27
  %32 = extractvalue { i64, i1 } %24, 0
  %33 = icmp eq i64 %32, 2
  br i1 %33, label %35, label %34

34:                                               ; preds = %31
  call void @__assert_fail(ptr noundef nonnull @.str.189, ptr noundef nonnull @.str.65, i32 noundef 73, ptr noundef nonnull @__PRETTY_FUNCTION__.test_atomic_compare_exchange_ptr) #7
  unreachable

35:                                               ; preds = %31
  call void @llvm.lifetime.end.p0(i64 8, ptr nonnull %3) #6
  ret ptr @_Py_NoneStruct
}